target datalayout = "e-m:e-p270:32:32-p271:32:32-p272:64:64-i64:64-i128:128-f80:128-n8:16:32:64-S128"
target triple = "x86_64-pc-linux-gnu"

%struct.tng_trajectory = type { ptr, ptr, i64, ptr, ptr, ptr, ptr, ptr, ptr, i8, i8, ptr, ptr, ptr, ptr, ptr, ptr, ptr, ptr, ptr, i64, i64, i8, i64, i64, i64, double, i64, ptr, ptr, i64, i64, i64, i64, i64, %struct.tng_trajectory_frame_set, i64, i64, i64, i32, ptr, i32, ptr, ptr, ptr, double }
%struct.tng_trajectory_frame_set = type { i64, ptr, i64, i64, i64, i64, ptr, i64, i64, i64, i64, i64, i64, i64, double, i32, ptr, i32, ptr }

@stderr = external global ptr, align 8
@.str = private unnamed_addr constant [45 x i8] c"TNG library: Cannot allocate memory. %s: %d\0A\00", align 1
@.str.1 = private unnamed_addr constant [130 x i8] c"generated/home/dtcxzyw/WorkSpace/Projects/compilers/llvm-opt-benchmark/bench/gromacs/gromacs/src/external/tng_io/src/lib/tng_io.c\00", align 1

; Function Attrs: nounwind uwtable
define internal i32 @tng_freadstr(ptr noundef %0, ptr noundef %1, i8 noundef signext %2, ptr noundef %3, i32 noundef %4) #0 {
  %6 = alloca i32, align 4
  %7 = alloca ptr, align 8
  %8 = alloca ptr, align 8
  %9 = alloca i8, align 1
  %10 = alloca ptr, align 8
  %11 = alloca i32, align 4
  %12 = alloca [1024 x i8], align 16
  %13 = alloca ptr, align 8
  %14 = alloca i32, align 4
  %15 = alloca i32, align 4
  %16 = alloca i32, align 4
  store ptr %0, ptr %7, align 8, !tbaa !3
  store ptr %1, ptr %8, align 8, !tbaa !203
  store i8 %2, ptr %9, align 1, !tbaa !23
  store ptr %3, ptr %10, align 8, !tbaa !242
  store i32 %4, ptr %11, align 4, !tbaa !20
  call void @llvm.lifetime.start.p0(i64 1024, ptr %12) #11
  call void @llvm.lifetime.start.p0(i64 8, ptr %13) #11
  call void @llvm.lifetime.start.p0(i64 4, ptr %14) #11
  call void @llvm.lifetime.start.p0(i64 4, ptr %15) #11
  store i32 0, ptr %15, align 4, !tbaa !20
  br label %17

17:                                               ; preds = %47, %5
  %18 = load ptr, ptr %7, align 8, !tbaa !3
  %19 = getelementptr inbounds nuw %struct.tng_trajectory, ptr %18, i32 0, i32 1
  %20 = load ptr, ptr %19, align 8, !tbaa !136
  %21 = call i32 @fgetc(ptr noundef %20)
  store i32 %21, ptr %14, align 4, !tbaa !20
  %22 = load i32, ptr %14, align 4, !tbaa !20
  %23 = icmp eq i32 %22, -1
  br i1 %23, label %24, label %28

24:                                               ; preds = %17
  %25 = load ptr, ptr %7, align 8, !tbaa !3
  %26 = getelementptr inbounds nuw %struct.tng_trajectory, ptr %25, i32 0, i32 1
  %27 = load ptr, ptr %26, align 8, !tbaa !136
  call void @clearerr(ptr noundef %27) #11
  store i32 1, ptr %6, align 4
  store i32 1, ptr %16, align 4
  br label %82

28:                                               ; preds = %17
  %29 = load i32, ptr %14, align 4, !tbaa !20
  %30 = trunc i32 %29 to i8
  %31 = load i32, ptr %15, align 4, !tbaa !20
  %32 = add nsw i32 %31, 1
  store i32 %32, ptr %15, align 4, !tbaa !20
  %33 = sext i32 %31 to i64
  %34 = getelementptr inbounds [1024 x i8], ptr %12, i64 0, i64 %33
  store i8 %30, ptr %34, align 1, !tbaa !23
  br label %35

35:                                               ; preds = %28
  br label %36

36:                                               ; preds = %35
  %37 = load i32, ptr %15, align 4, !tbaa !20
  %38 = sub nsw i32 %37, 1
  %39 = sext i32 %38 to i64
  %40 = getelementptr inbounds [1024 x i8], ptr %12, i64 0, i64 %39
  %41 = load i8, ptr %40, align 1, !tbaa !23
  %42 = sext i8 %41 to i32
  %43 = icmp ne i32 %42, 0
  br i1 %43, label %44, label %47

44:                                               ; preds = %36
  %45 = load i32, ptr %15, align 4, !tbaa !20
  %46 = icmp slt i32 %45, 1024
  br label %47

47:                                               ; preds = %44, %36
  %48 = phi i1 [ false, %36 ], [ %46, %44 ]
  br i1 %48, label %17, label %49, !llvm.loop !452

49:                                               ; preds = %47
  %50 = load ptr, ptr %8, align 8, !tbaa !203
  %51 = load ptr, ptr %50, align 8, !tbaa !19
  %52 = load i32, ptr %15, align 4, !tbaa !20
  %53 = sext i32 %52 to i64
  %54 = call ptr @realloc(ptr noundef %51, i64 noundef %53) #14
  store ptr %54, ptr %13, align 8, !tbaa !19
  %55 = load ptr, ptr %13, align 8, !tbaa !19
  %56 = icmp ne ptr %55, null
  br i1 %56, label %64, label %57

57:                                               ; preds = %49
  %58 = load ptr, ptr @stderr, align 8, !tbaa !24
  %59 = load i32, ptr %11, align 4, !tbaa !20
  %60 = call i32 (ptr, ptr, ...) @fprintf(ptr noundef %58, ptr noundef @.str, ptr noundef @.str.1, i32 noundef %59) #11
  %61 = load ptr, ptr %8, align 8, !tbaa !203
  %62 = load ptr, ptr %61, align 8, !tbaa !19
  call void @free(ptr noundef %62) #11
  %63 = load ptr, ptr %8, align 8, !tbaa !203
  store ptr null, ptr %63, align 8, !tbaa !19
  store i32 1, ptr %6, align 4
  store i32 1, ptr %16, align 4
  br label %82

64:                                               ; preds = %49
  %65 = load ptr, ptr %13, align 8, !tbaa !19
  %66 = load ptr, ptr %8, align 8, !tbaa !203
  store ptr %65, ptr %66, align 8, !tbaa !19
  %67 = load ptr, ptr %8, align 8, !tbaa !203
  %68 = load ptr, ptr %67, align 8, !tbaa !19
  %69 = getelementptr inbounds [1024 x i8], ptr %12, i64 0, i64 0
  %70 = load i32, ptr %15, align 4, !tbaa !20
  %71 = sext i32 %70 to i64
  %72 = call ptr @strncpy(ptr noundef %68, ptr noundef %69, i64 noundef %71) #11
  %73 = load i8, ptr %9, align 1, !tbaa !23
  %74 = sext i8 %73 to i32
  %75 = icmp eq i32 %74, 1
  br i1 %75, label %76, label %81

76:                                               ; preds = %64
  %77 = load ptr, ptr %10, align 8, !tbaa !242
  %78 = load ptr, ptr %8, align 8, !tbaa !203
  %79 = load ptr, ptr %78, align 8, !tbaa !19
  %80 = load i32, ptr %15, align 4, !tbaa !20
  call void @md5_append(ptr noundef %77, ptr noundef %79, i32 noundef %80)
  br label %81

81:                                               ; preds = %76, %64
  store i32 0, ptr %6, align 4
  store i32 1, ptr %16, align 4
  br label %82

82:                                               ; preds = %81, %57, %24
  call void @llvm.lifetime.end.p0(i64 4, ptr %15) #11
  call void @llvm.lifetime.end.p0(i64 4, ptr %14) #11
  call void @llvm.lifetime.end.p0(i64 8, ptr %13) #11
  call void @llvm.lifetime.end.p0(i64 1024, ptr %12) #11
  %83 = load i32, ptr %6, align 4
  ret i32 %83
}