; Function Attrs: nounwind uwtable
define internal fastcc void @tng_freadstr(ptr noundef readonly captures(none) %0, ptr noundef captures(none) %1, i8 noundef signext %2, ptr noundef %3, i32 noundef range(i32 1110, 2857) %4) unnamed_addr #4 {
  %6 = alloca [1024 x i8], align 16
  call void @llvm.lifetime.start.p0(i64 1024, ptr nonnull %6) #26
  %7 = getelementptr inbounds nuw i8, ptr %0, i64 8
  br label %8

8:                                                ; preds = %14, %5
  %indvars.iv = phi i64 [ %indvars.iv.next, %14 ], [ 0, %5 ]
  %9 = load ptr, ptr %7, align 8, !tbaa !137
  %10 = tail call i32 @fgetc(ptr noundef %9)
  %11 = icmp eq i32 %10, -1
  br i1 %11, label %12, label %14

12:                                               ; preds = %8
  %13 = load ptr, ptr %7, align 8, !tbaa !137
  tail call void @clearerr(ptr noundef %13) #26
  br label %33

14:                                               ; preds = %8
  %15 = trunc i32 %10 to i8
  %indvars.iv.next = add nuw nsw i64 %indvars.iv, 1
  %16 = getelementptr inbounds nuw [1024 x i8], ptr %6, i64 0, i64 %indvars.iv
  store i8 %15, ptr %16, align 1, !tbaa !13
  %sext.mask = and i32 %10, 255
  %17 = icmp ne i32 %sext.mask, 0
  %18 = icmp samesign ult i64 %indvars.iv, 1023
  %19 = select i1 %17, i1 %18, i1 false
  br i1 %19, label %8, label %20, !llvm.loop !227

20:                                               ; preds = %14
  %21 = trunc nuw nsw i64 %indvars.iv.next to i32
  %22 = load ptr, ptr %1, align 8, !tbaa !40
  %23 = and i64 %indvars.iv.next, 4294967295
  %24 = tail call ptr @realloc(ptr noundef %22, i64 noundef %23) #30
  %.not = icmp eq ptr %24, null
  br i1 %.not, label %25, label %29

25:                                               ; preds = %20
  %26 = load ptr, ptr @stderr, align 8, !tbaa !14
  %27 = tail call i32 (ptr, ptr, ...) @fprintf(ptr noundef %26, ptr noundef nonnull @.str, ptr noundef nonnull @.str.1, i32 noundef %4) #29
  %28 = load ptr, ptr %1, align 8, !tbaa !40
  tail call void @free(ptr noundef %28) #26
  store ptr null, ptr %1, align 8, !tbaa !40
  br label %33

29:                                               ; preds = %20
  store ptr %24, ptr %1, align 8, !tbaa !40
  %30 = call ptr @strncpy(ptr noundef nonnull dereferenceable(1) %24, ptr noundef nonnull dereferenceable(1) %6, i64 noundef %23) #26
  %31 = icmp eq i8 %2, 1
  br i1 %31, label %32, label %33

32:                                               ; preds = %29
  tail call void @md5_append(ptr noundef %3, ptr noundef nonnull %24, i32 noundef %21) #26
  br label %33

33:                                               ; preds = %29, %32, %25, %12
  call void @llvm.lifetime.end.p0(i64 1024, ptr nonnull %6) #26
  ret void
}